; Function Attrs: mustprogress uwtable
define hidden noundef nonnull align 8 dereferenceable(640) ptr @_ZNK11cmd_context10get_pp_envEv(ptr noundef nonnull align 8 dereferenceable(872) %this) local_unnamed_addr #4 align 2 {
entry:
  %m_pp_env = getelementptr inbounds i8, ptr %this, i64 864
  %0 = load ptr, ptr %m_pp_env, align 8
  %cmp = icmp eq ptr %0, null
  br i1 %cmp, label %if.then, label %if.end

if.then:                                          ; preds = %entry
  %call2 = tail call noalias noundef ptr @_ZN6memory8allocateEm(i64 noundef 640)
  tail call void @_ZN11cmd_context6pp_envC2ERS_(ptr noundef nonnull align 8 dereferenceable(640) %call2, ptr noundef nonnull align 8 dereferenceable(872) %this)
  %1 = load ptr, ptr %m_pp_env, align 8
  %cmp.not.i = icmp eq ptr %1, %call2
  br i1 %cmp.not.i, label %if.end, label %if.then.i

if.then.i:                                        ; preds = %if.then
  %cmp.i.i = icmp eq ptr %1, null
  br i1 %cmp.i.i, label %_Z7deallocIN11cmd_context6pp_envEEvPT_.exit.i, label %if.end.i.i

if.end.i.i:                                       ; preds = %if.then.i
  %vtable.i.i = load ptr, ptr %1, align 8
  %2 = load ptr, ptr %vtable.i.i, align 8
  tail call void %2(ptr noundef nonnull align 8 dereferenceable(640) %1) #25
  tail call void @_ZN6memory10deallocateEPv(ptr noundef nonnull %1)
  br label %_Z7deallocIN11cmd_context6pp_envEEvPT_.exit.i

_Z7deallocIN11cmd_context6pp_envEEvPT_.exit.i:    ; preds = %if.end.i.i, %if.then.i
  store ptr %call2, ptr %m_pp_env, align 8
  br label %if.end

if.end:                                           ; preds = %_Z7deallocIN11cmd_context6pp_envEEvPT_.exit.i, %if.then, %entry
  %3 = phi ptr [ %call2, %_Z7deallocIN11cmd_context6pp_envEEvPT_.exit.i ], [ %call2, %if.then ], [ %0, %entry ]
  ret ptr %3
}